target datalayout = "e-m:e-p270:32:32-p271:32:32-p272:64:64-i64:64-i128:128-f80:128-n8:16:32:64-S128"
target triple = "x86_64-pc-linux-gnu"

%"class.clang::CodeGen::CodeGenVTables" = type { ptr, ptr, %"class.llvm::DenseMap", %"class.llvm::DenseMap", ptr, ptr }
%"class.llvm::DenseMap" = type <{ ptr, i32, i32, i32, [4 x i8] }>
%"class.llvm::SmallVectorBase" = type { ptr, i32, i32 }
%"class.clang::GlobalDecl" = type { %"class.llvm::PointerIntPair.265", i32, [4 x i8] }
%"class.llvm::PointerIntPair.265" = type { %"struct.llvm::detail::PunnedPointer.266" }
%"struct.llvm::detail::PunnedPointer.266" = type { [8 x i8] }
%"class.clang::SourceLocation" = type { i32 }
%"struct.clang::ThunkInfo" = type { %"struct.clang::ThisAdjustment", %"struct.clang::ReturnAdjustment", ptr, ptr }
%"struct.clang::ThisAdjustment" = type { i64, %"union.clang::ThisAdjustment::VirtualAdjustment" }
%"union.clang::ThisAdjustment::VirtualAdjustment" = type <{ %struct.anon.949, [8 x i8] }>
%struct.anon.949 = type { i64 }
%"struct.clang::ReturnAdjustment" = type { i64, %"union.clang::ReturnAdjustment::VirtualAdjustment" }
%"union.clang::ReturnAdjustment::VirtualAdjustment" = type { %struct.anon.951 }
%struct.anon.951 = type { i64 }
%"class.llvm::PointerIntPair.659" = type { %"struct.llvm::detail::PunnedPointer.660" }
%"struct.llvm::detail::PunnedPointer.660" = type { [8 x i8] }
%"class.llvm::PointerUnion" = type { %"class.llvm::pointer_union_detail::PointerUnionMembers" }
%"class.llvm::pointer_union_detail::PointerUnionMembers" = type { %"class.llvm::pointer_union_detail::PointerUnionMembers.661" }
%"class.llvm::pointer_union_detail::PointerUnionMembers.661" = type { %"class.llvm::pointer_union_detail::PointerUnionMembers.662" }
%"class.llvm::pointer_union_detail::PointerUnionMembers.662" = type { %"class.llvm::PointerIntPair.663" }
%"class.llvm::PointerIntPair.663" = type { %"struct.llvm::detail::PunnedPointer.664" }
%"struct.llvm::detail::PunnedPointer.664" = type { [8 x i8] }
%"class.clang::Decl" = type <{ ptr, %"class.llvm::PointerIntPair.659", %"class.llvm::PointerUnion", %"class.clang::SourceLocation", i32, i8, [7 x i8] }>

; Function Attrs: mustprogress nounwind uwtable
define linkonce_odr hidden noundef zeroext i1 @_ZN5clang17CXXDestructorDecl11classofKindENS_4Decl4KindE(i32 noundef %0) #0 comdat align 2 {
  %2 = alloca i32, align 4
  store i32 %0, ptr %2, align 4
  %3 = load i32, ptr %2, align 4
  %4 = icmp eq i32 %3, 33
  ret i1 %4
}

; Function Attrs: mustprogress nounwind uwtable
define linkonce_odr hidden noundef i32 @_ZNK5clang4Decl7getKindEv(ptr noundef nonnull align 8 dereferenceable(33) %0) #0 comdat align 2 {
  %2 = alloca ptr, align 8
  store ptr %0, ptr %2, align 8
  %3 = load ptr, ptr %2, align 8
  %4 = getelementptr inbounds nuw %"class.clang::Decl", ptr %3, i32 0, i32 4
  %5 = load i32, ptr %4, align 4
  %6 = and i32 %5, 127
  ret i32 %6
}

; Function Attrs: mustprogress nounwind uwtable
define linkonce_odr hidden noundef zeroext i1 @_ZN5clang17CXXDestructorDecl7classofEPKNS_4DeclE(ptr noundef %0) #0 comdat align 2 {
  %2 = alloca ptr, align 8
  store ptr %0, ptr %2, align 8
  %3 = load ptr, ptr %2, align 8
  %4 = call noundef i32 @_ZNK5clang4Decl7getKindEv(ptr noundef nonnull align 8 dereferenceable(33) %3)
  %5 = call noundef zeroext i1 @_ZN5clang17CXXDestructorDecl11classofKindENS_4Decl4KindE(i32 noundef %4)
  ret i1 %5
}

; Function Attrs: mustprogress nounwind uwtable
define linkonce_odr hidden noundef zeroext i1 @_ZN4llvm8isa_implIN5clang17CXXDestructorDeclENS1_13CXXMethodDeclEvE4doitERKS3_(ptr noundef nonnull align 8 dereferenceable(168) %0) #0 comdat align 2 {
  %2 = alloca ptr, align 8
  store ptr %0, ptr %2, align 8
  %3 = load ptr, ptr %2, align 8
  %4 = call noundef zeroext i1 @_ZN5clang17CXXDestructorDecl7classofEPKNS_4DeclE(ptr noundef %3)
  ret i1 %4
}

; Function Attrs: mustprogress nounwind uwtable
define linkonce_odr hidden noundef zeroext i1 @_ZN4llvm11isa_impl_clIN5clang17CXXDestructorDeclEPKNS1_13CXXMethodDeclEE4doitES5_(ptr noundef %0) #0 comdat align 2 {
  %2 = alloca ptr, align 8
  store ptr %0, ptr %2, align 8
  %3 = load ptr, ptr %2, align 8
  %4 = call noundef zeroext i1 @_ZN4llvm8isa_implIN5clang17CXXDestructorDeclENS1_13CXXMethodDeclEvE4doitERKS3_(ptr noundef nonnull align 8 dereferenceable(168) %3)
  ret i1 %4
}

; Function Attrs: mustprogress nounwind uwtable
define linkonce_odr hidden noundef zeroext i1 @_ZN4llvm13isa_impl_wrapIN5clang17CXXDestructorDeclEPKNS1_13CXXMethodDeclES5_E4doitERKS5_(ptr noundef nonnull align 8 dereferenceable(8) %0) #0 comdat align 2 {
  %2 = alloca ptr, align 8
  store ptr %0, ptr %2, align 8
  %3 = load ptr, ptr %2, align 8
  %4 = load ptr, ptr %3, align 8
  %5 = call noundef zeroext i1 @_ZN4llvm11isa_impl_clIN5clang17CXXDestructorDeclEPKNS1_13CXXMethodDeclEE4doitES5_(ptr noundef %4)
  ret i1 %5
}

; Function Attrs: mustprogress nounwind uwtable
define linkonce_odr hidden noundef ptr @_ZN4llvm21PointerLikeTypeTraitsIPN5clang4DeclEE18getFromVoidPointerEPv(ptr noundef %0) #0 comdat align 2 {
  %2 = alloca ptr, align 8
  store ptr %0, ptr %2, align 8
  %3 = load ptr, ptr %2, align 8
  ret ptr %3
}

; Function Attrs: mustprogress nounwind uwtable
define linkonce_odr hidden noundef zeroext i1 @_ZN4llvm13isa_impl_wrapIN5clang17CXXDestructorDeclEKPKNS1_13CXXMethodDeclES5_E4doitERS6_(ptr noundef nonnull align 8 dereferenceable(8) %0) #0 comdat align 2 {
  %2 = alloca ptr, align 8
  %3 = alloca ptr, align 8
  store ptr %0, ptr %2, align 8
  %4 = load ptr, ptr %2, align 8
  %5 = call noundef ptr @_ZN4llvm13simplify_typeIKPKN5clang13CXXMethodDeclEE18getSimplifiedValueERS5_(ptr noundef nonnull align 8 dereferenceable(8) %4)
  store ptr %5, ptr %3, align 8
  %6 = call noundef zeroext i1 @_ZN4llvm13isa_impl_wrapIN5clang17CXXDestructorDeclEPKNS1_13CXXMethodDeclES5_E4doitERKS5_(ptr noundef nonnull align 8 dereferenceable(8) %3)
  ret i1 %6
}

; Function Attrs: mustprogress nounwind uwtable
define linkonce_odr hidden noundef nonnull align 8 dereferenceable(8) ptr @_ZN4llvm13simplify_typeIPKN5clang13CXXMethodDeclEE18getSimplifiedValueERS4_(ptr noundef nonnull align 8 dereferenceable(8) %0) #0 comdat align 2 {
  %2 = alloca ptr, align 8
  store ptr %0, ptr %2, align 8
  %3 = load ptr, ptr %2, align 8
  ret ptr %3
}

; Function Attrs: mustprogress nounwind uwtable
define linkonce_odr hidden noundef ptr @_ZN4llvm21PointerLikeTypeTraitsIPKN5clang4DeclEE18getFromVoidPointerEPKv(ptr noundef %0) #0 comdat align 2 {
  %2 = alloca ptr, align 8
  store ptr %0, ptr %2, align 8
  %3 = load ptr, ptr %2, align 8
  %4 = call noundef ptr @_ZN4llvm21PointerLikeTypeTraitsIPN5clang4DeclEE18getFromVoidPointerEPv(ptr noundef %3)
  ret ptr %4
}

; Function Attrs: mustprogress nounwind uwtable
define linkonce_odr hidden noundef i64 @_ZNK4llvm6detail13PunnedPointerIPKN5clang4DeclEE5asIntEv(ptr noundef nonnull align 8 dereferenceable(8) %0) #0 comdat align 2 {
  %2 = alloca ptr, align 8
  %3 = alloca i64, align 8
  store ptr %0, ptr %2, align 8
  %4 = load ptr, ptr %2, align 8
  store i64 0, ptr %3, align 8
  %5 = getelementptr inbounds nuw %"struct.llvm::detail::PunnedPointer.266", ptr %4, i32 0, i32 0
  %6 = getelementptr inbounds [8 x i8], ptr %5, i64 0, i64 0
  call void @llvm.memcpy.p0.p0.i64(ptr align 8 %3, ptr align 8 %6, i64 8, i1 false)
  %7 = load i64, ptr %3, align 8
  ret i64 %7
}

; Function Attrs: mustprogress nounwind uwtable
define linkonce_odr hidden noundef i64 @_ZN4llvm18PointerIntPairInfoIPKN5clang4DeclELj3ENS_21PointerLikeTypeTraitsIS4_EEE6getIntEl(i64 noundef %0) #0 comdat align 2 {
  %2 = alloca i64, align 8
  store i64 %0, ptr %2, align 8
  %3 = load i64, ptr %2, align 8
  %4 = ashr i64 %3, 0
  %5 = and i64 %4, 7
  ret i64 %5
}

; Function Attrs: mustprogress nounwind uwtable
define linkonce_odr hidden noundef zeroext i1 @_ZN4llvm14CastIsPossibleIN5clang17CXXDestructorDeclEPKNS1_13CXXMethodDeclEvE10isPossibleERKS5_(ptr noundef nonnull align 8 dereferenceable(8) %0) #0 comdat align 2 {
  %2 = alloca ptr, align 8
  store ptr %0, ptr %2, align 8
  %3 = load ptr, ptr %2, align 8
  %4 = call noundef zeroext i1 @_ZN4llvm13isa_impl_wrapIN5clang17CXXDestructorDeclEKPKNS1_13CXXMethodDeclES5_E4doitERS6_(ptr noundef nonnull align 8 dereferenceable(8) %3)
  ret i1 %4
}

; Function Attrs: mustprogress nounwind uwtable
define linkonce_odr hidden noundef ptr @_ZN4llvm13simplify_typeIKPKN5clang13CXXMethodDeclEE18getSimplifiedValueERS5_(ptr noundef nonnull align 8 dereferenceable(8) %0) #0 comdat align 2 {
  %2 = alloca ptr, align 8
  store ptr %0, ptr %2, align 8
  %3 = load ptr, ptr %2, align 8
  %4 = call noundef nonnull align 8 dereferenceable(8) ptr @_ZN4llvm13simplify_typeIPKN5clang13CXXMethodDeclEE18getSimplifiedValueERS4_(ptr noundef nonnull align 8 dereferenceable(8) %3)
  %5 = load ptr, ptr %4, align 8
  ret ptr %5
}

; Function Attrs: mustprogress nounwind uwtable
define linkonce_odr hidden noundef ptr @_ZN4llvm16cast_convert_valIN5clang13CXXMethodDeclEPKNS1_4DeclES5_E4doitES5_(ptr noundef %0) #0 comdat align 2 {
  %2 = alloca ptr, align 8
  store ptr %0, ptr %2, align 8
  %3 = load ptr, ptr %2, align 8
  ret ptr %3
}

; Function Attrs: mustprogress nounwind uwtable
define linkonce_odr hidden noundef ptr @_ZN4llvm18PointerIntPairInfoIPKN5clang4DeclELj3ENS_21PointerLikeTypeTraitsIS4_EEE10getPointerEl(i64 noundef %0) #0 comdat align 2 {
  %2 = alloca i64, align 8
  store i64 %0, ptr %2, align 8
  %3 = load i64, ptr %2, align 8
  %4 = and i64 %3, -8
  %5 = inttoptr i64 %4 to ptr
  %6 = call noundef ptr @_ZN4llvm21PointerLikeTypeTraitsIPKN5clang4DeclEE18getFromVoidPointerEPKv(ptr noundef %5)
  ret ptr %6
}

; Function Attrs: mustprogress nounwind uwtable
define linkonce_odr hidden noundef i64 @_ZNK4llvm6detail13PunnedPointerIPKN5clang4DeclEEcvlEv(ptr noundef nonnull align 8 dereferenceable(8) %0) #0 comdat align 2 {
  %2 = alloca ptr, align 8
  store ptr %0, ptr %2, align 8
  %3 = load ptr, ptr %2, align 8
  %4 = call noundef i64 @_ZNK4llvm6detail13PunnedPointerIPKN5clang4DeclEE5asIntEv(ptr noundef nonnull align 8 dereferenceable(8) %3)
  ret i64 %4
}

; Function Attrs: mustprogress nounwind uwtable
define linkonce_odr hidden noundef i32 @_ZNK4llvm14PointerIntPairIPKN5clang4DeclELj3EjNS_21PointerLikeTypeTraitsIS4_EENS_18PointerIntPairInfoIS4_Lj3ES6_EEE6getIntEv(ptr noundef nonnull align 8 dereferenceable(8) %0) #0 comdat align 2 {
  %2 = alloca ptr, align 8
  store ptr %0, ptr %2, align 8
  %3 = load ptr, ptr %2, align 8
  %4 = getelementptr inbounds nuw %"class.llvm::PointerIntPair.265", ptr %3, i32 0, i32 0
  %5 = call noundef i64 @_ZNK4llvm6detail13PunnedPointerIPKN5clang4DeclEEcvlEv(ptr noundef nonnull align 8 dereferenceable(8) %4)
  %6 = call noundef i64 @_ZN4llvm18PointerIntPairInfoIPKN5clang4DeclELj3ENS_21PointerLikeTypeTraitsIS4_EEE6getIntEl(i64 noundef %5)
  %7 = trunc i64 %6 to i32
  ret i32 %7
}

; Function Attrs: mustprogress nounwind uwtable
define linkonce_odr hidden noundef zeroext i1 @_ZN4llvm8CastInfoIN5clang17CXXDestructorDeclEKPKNS1_13CXXMethodDeclEvE10isPossibleERS6_(ptr noundef nonnull align 8 dereferenceable(8) %0) #0 comdat align 2 {
  %2 = alloca ptr, align 8
  %3 = alloca ptr, align 8
  store ptr %0, ptr %2, align 8
  %4 = load ptr, ptr %2, align 8
  %5 = call noundef ptr @_ZN4llvm13simplify_typeIKPKN5clang13CXXMethodDeclEE18getSimplifiedValueERS5_(ptr noundef nonnull align 8 dereferenceable(8) %4)
  store ptr %5, ptr %3, align 8
  %6 = call noundef zeroext i1 @_ZN4llvm14CastIsPossibleIN5clang17CXXDestructorDeclEPKNS1_13CXXMethodDeclEvE10isPossibleERKS5_(ptr noundef nonnull align 8 dereferenceable(8) %3)
  ret i1 %6
}

; Function Attrs: mustprogress nounwind uwtable
define linkonce_odr hidden noundef ptr @_ZN4llvm8CastInfoIN5clang13CXXMethodDeclEPKNS1_4DeclEvE6doCastERKS5_(ptr noundef nonnull align 8 dereferenceable(8) %0) #0 comdat align 2 {
  %2 = alloca ptr, align 8
  store ptr %0, ptr %2, align 8
  %3 = load ptr, ptr %2, align 8
  %4 = load ptr, ptr %3, align 8
  %5 = call noundef ptr @_ZN4llvm16cast_convert_valIN5clang13CXXMethodDeclEPKNS1_4DeclES5_E4doitES5_(ptr noundef %4)
  ret ptr %5
}

; Function Attrs: mustprogress nounwind uwtable
define linkonce_odr hidden noundef ptr @_ZNK4llvm14PointerIntPairIPKN5clang4DeclELj3EjNS_21PointerLikeTypeTraitsIS4_EENS_18PointerIntPairInfoIS4_Lj3ES6_EEE10getPointerEv(ptr noundef nonnull align 8 dereferenceable(8) %0) #0 comdat align 2 {
  %2 = alloca ptr, align 8
  store ptr %0, ptr %2, align 8
  %3 = load ptr, ptr %2, align 8
  %4 = getelementptr inbounds nuw %"class.llvm::PointerIntPair.265", ptr %3, i32 0, i32 0
  %5 = call noundef i64 @_ZNK4llvm6detail13PunnedPointerIPKN5clang4DeclEEcvlEv(ptr noundef nonnull align 8 dereferenceable(8) %4)
  %6 = call noundef ptr @_ZN4llvm18PointerIntPairInfoIPKN5clang4DeclELj3ENS_21PointerLikeTypeTraitsIS4_EEE10getPointerEl(i64 noundef %5)
  ret ptr %6
}

; Function Attrs: mustprogress nounwind uwtable
define linkonce_odr hidden noundef ptr @_ZNK4llvm25SmallVectorTemplateCommonIN5clang9ThunkInfoEvE3endEv(ptr noundef nonnull align 8 dereferenceable(16) %0) #0 comdat align 2 {
  %2 = alloca ptr, align 8
  store ptr %0, ptr %2, align 8
  %3 = load ptr, ptr %2, align 8
  %4 = call noundef ptr @_ZNK4llvm25SmallVectorTemplateCommonIN5clang9ThunkInfoEvE5beginEv(ptr noundef nonnull align 8 dereferenceable(16) %3)
  %5 = call noundef i64 @_ZNK4llvm15SmallVectorBaseIjE4sizeEv(ptr noundef nonnull align 8 dereferenceable(16) %3)
  %6 = getelementptr inbounds %"struct.clang::ThunkInfo", ptr %4, i64 %5
  ret ptr %6
}

; Function Attrs: mustprogress nounwind uwtable
define linkonce_odr hidden noundef ptr @_ZNK4llvm25SmallVectorTemplateCommonIN5clang9ThunkInfoEvE5beginEv(ptr noundef nonnull align 8 dereferenceable(16) %0) #0 comdat align 2 {
  %2 = alloca ptr, align 8
  store ptr %0, ptr %2, align 8
  %3 = load ptr, ptr %2, align 8
  %4 = getelementptr inbounds nuw %"class.llvm::SmallVectorBase", ptr %3, i32 0, i32 0
  %5 = load ptr, ptr %4, align 8
  ret ptr %5
}

; Function Attrs: mustprogress nounwind uwtable
define linkonce_odr hidden noundef i32 @_ZNK5clang10GlobalDecl11getDtorTypeEv(ptr noundef nonnull align 8 dereferenceable(12) %0) #0 comdat align 2 {
  %2 = alloca ptr, align 8
  store ptr %0, ptr %2, align 8
  %3 = load ptr, ptr %2, align 8
  %4 = getelementptr inbounds nuw %"class.clang::GlobalDecl", ptr %3, i32 0, i32 0
  %5 = call noundef i32 @_ZNK4llvm14PointerIntPairIPKN5clang4DeclELj3EjNS_21PointerLikeTypeTraitsIS4_EENS_18PointerIntPairInfoIS4_Lj3ES6_EEE6getIntEv(ptr noundef nonnull align 8 dereferenceable(8) %4)
  ret i32 %5
}

; Function Attrs: mustprogress nounwind uwtable
define linkonce_odr hidden noundef zeroext i1 @_ZN4llvm3isaIN5clang17CXXDestructorDeclEPKNS1_13CXXMethodDeclEEEbRKT0_(ptr noundef nonnull align 8 dereferenceable(8) %0) #0 comdat {
  %2 = alloca ptr, align 8
  store ptr %0, ptr %2, align 8
  %3 = load ptr, ptr %2, align 8
  %4 = call noundef zeroext i1 @_ZN4llvm8CastInfoIN5clang17CXXDestructorDeclEKPKNS1_13CXXMethodDeclEvE10isPossibleERS6_(ptr noundef nonnull align 8 dereferenceable(8) %3)
  ret i1 %4
}

; Function Attrs: mustprogress nounwind uwtable
define linkonce_odr hidden noundef ptr @_ZNK5clang13CXXMethodDecl16getCanonicalDeclEv(ptr noundef nonnull align 8 dereferenceable(168) %0) #0 comdat align 2 {
  %2 = alloca ptr, align 8
  store ptr %0, ptr %2, align 8
  %3 = load ptr, ptr %2, align 8
  %4 = load ptr, ptr %3, align 8
  %5 = getelementptr inbounds ptr, ptr %4, i64 4
  %6 = load ptr, ptr %5, align 8
  %7 = call noundef ptr %6(ptr noundef nonnull align 8 dereferenceable(168) %3)
  ret ptr %7
}

; Function Attrs: mustprogress nounwind uwtable
define linkonce_odr hidden noundef ptr @_ZN4llvm4castIN5clang13CXXMethodDeclEKNS1_4DeclEEEDcPT0_(ptr noundef %0) #0 comdat {
  %2 = alloca ptr, align 8
  store ptr %0, ptr %2, align 8
  %3 = call noundef ptr @_ZN4llvm8CastInfoIN5clang13CXXMethodDeclEPKNS1_4DeclEvE6doCastERKS5_(ptr noundef nonnull align 8 dereferenceable(8) %2)
  ret ptr %3
}

; Function Attrs: mustprogress nounwind uwtable
define linkonce_odr hidden noundef ptr @_ZNK5clang10GlobalDecl7getDeclEv(ptr noundef nonnull align 8 dereferenceable(12) %0) #0 comdat align 2 {
  %2 = alloca ptr, align 8
  store ptr %0, ptr %2, align 8
  %3 = load ptr, ptr %2, align 8
  %4 = getelementptr inbounds nuw %"class.clang::GlobalDecl", ptr %3, i32 0, i32 0
  %5 = call noundef ptr @_ZNK4llvm14PointerIntPairIPKN5clang4DeclELj3EjNS_21PointerLikeTypeTraitsIS4_EENS_18PointerIntPairInfoIS4_Lj3ES6_EEE10getPointerEv(ptr noundef nonnull align 8 dereferenceable(8) %4)
  ret ptr %5
}

; Function Attrs: mustprogress nounwind uwtable
define dso_local void @_ZN5clang7CodeGen14CodeGenVTables10EmitThunksENS_10GlobalDeclE(ptr noundef nonnull align 8 dereferenceable(80) %0, i64 %1, i32 %2) #0 align 2 {
  %4 = alloca %"class.clang::GlobalDecl", align 8
  %5 = alloca ptr, align 8
  %6 = alloca ptr, align 8
  %7 = alloca ptr, align 8
  %8 = alloca %"class.clang::GlobalDecl", align 8
  %9 = alloca ptr, align 8
  %10 = alloca ptr, align 8
  %11 = alloca ptr, align 8
  %12 = alloca ptr, align 8
  %13 = alloca %"class.clang::GlobalDecl", align 8
  %14 = getelementptr inbounds nuw { i64, i32 }, ptr %4, i32 0, i32 0
  store i64 %1, ptr %14, align 8
  %15 = getelementptr inbounds nuw { i64, i32 }, ptr %4, i32 0, i32 1
  store i32 %2, ptr %15, align 8
  store ptr %0, ptr %5, align 8
  %16 = load ptr, ptr %5, align 8
  %17 = call noundef ptr @_ZNK5clang10GlobalDecl7getDeclEv(ptr noundef nonnull align 8 dereferenceable(12) %4)
  %18 = call noundef ptr @_ZN4llvm4castIN5clang13CXXMethodDeclEKNS1_4DeclEEEDcPT0_(ptr noundef %17)
  %19 = call noundef ptr @_ZNK5clang13CXXMethodDecl16getCanonicalDeclEv(ptr noundef nonnull align 8 dereferenceable(168) %18)
  store ptr %19, ptr %6, align 8
  %20 = call noundef zeroext i1 @_ZN4llvm3isaIN5clang17CXXDestructorDeclEPKNS1_13CXXMethodDeclEEEbRKT0_(ptr noundef nonnull align 8 dereferenceable(8) %6)
  br i1 %20, label %21, label %25

21:                                               ; preds = %3
  %22 = call noundef i32 @_ZNK5clang10GlobalDecl11getDtorTypeEv(ptr noundef nonnull align 8 dereferenceable(12) %4)
  %23 = icmp eq i32 %22, 2
  br i1 %23, label %24, label %25

24:                                               ; preds = %21
  br label %60

25:                                               ; preds = %21, %3
  %26 = getelementptr inbounds nuw %"class.clang::CodeGen::CodeGenVTables", ptr %16, i32 0, i32 1
  %27 = load ptr, ptr %26, align 8
  call void @llvm.memcpy.p0.p0.i64(ptr align 8 %8, ptr align 8 %4, i64 16, i1 false)
  %28 = getelementptr inbounds nuw { i64, i32 }, ptr %8, i32 0, i32 0
  %29 = load i64, ptr %28, align 8
  %30 = getelementptr inbounds nuw { i64, i32 }, ptr %8, i32 0, i32 1
  %31 = load i32, ptr %30, align 8
  %32 = load ptr, ptr %27, align 8
  %33 = getelementptr inbounds ptr, ptr %32, i64 3
  %34 = load ptr, ptr %33, align 8
  %35 = call noundef ptr %34(ptr noundef nonnull align 8 dereferenceable(33) %27, i64 %29, i32 %31)
  store ptr %35, ptr %7, align 8
  %36 = load ptr, ptr %7, align 8
  %37 = icmp ne ptr %36, null
  br i1 %37, label %39, label %38

38:                                               ; preds = %25
  br label %60

39:                                               ; preds = %25
  %40 = load ptr, ptr %7, align 8
  store ptr %40, ptr %9, align 8
  %41 = load ptr, ptr %9, align 8
  %42 = call noundef ptr @_ZNK4llvm25SmallVectorTemplateCommonIN5clang9ThunkInfoEvE5beginEv(ptr noundef nonnull align 8 dereferenceable(16) %41)
  store ptr %42, ptr %10, align 8
  %43 = load ptr, ptr %9, align 8
  %44 = call noundef ptr @_ZNK4llvm25SmallVectorTemplateCommonIN5clang9ThunkInfoEvE3endEv(ptr noundef nonnull align 8 dereferenceable(16) %43)
  store ptr %44, ptr %11, align 8
  br label %45

45:                                               ; preds = %57, %39
  %46 = load ptr, ptr %10, align 8
  %47 = load ptr, ptr %11, align 8
  %48 = icmp ne ptr %46, %47
  br i1 %48, label %49, label %60

49:                                               ; preds = %45
  %50 = load ptr, ptr %10, align 8
  store ptr %50, ptr %12, align 8
  call void @llvm.memcpy.p0.p0.i64(ptr align 8 %13, ptr align 8 %4, i64 16, i1 false)
  %51 = load ptr, ptr %12, align 8
  %52 = getelementptr inbounds nuw { i64, i32 }, ptr %13, i32 0, i32 0
  %53 = load i64, ptr %52, align 8
  %54 = getelementptr inbounds nuw { i64, i32 }, ptr %13, i32 0, i32 1
  %55 = load i32, ptr %54, align 8
  %56 = call noundef ptr @_ZN5clang7CodeGen14CodeGenVTables14maybeEmitThunkENS_10GlobalDeclERKNS_9ThunkInfoEb(ptr noundef nonnull align 8 dereferenceable(80) %16, i64 %53, i32 %55, ptr noundef nonnull align 8 dereferenceable(56) %51, i1 noundef zeroext false)
  br label %57

57:                                               ; preds = %49
  %58 = load ptr, ptr %10, align 8
  %59 = getelementptr inbounds %"struct.clang::ThunkInfo", ptr %58, i32 1
  store ptr %59, ptr %10, align 8
  br label %45

60:                                               ; preds = %45, %38, %24
  ret void
}