; Function Attrs: mustprogress nounwind uwtable
define dso_local void @_ZN5clang7CodeGen14CodeGenVTables10EmitThunksENS_10GlobalDeclE(ptr noundef nonnull readonly align 8 captures(none) dereferenceable(80) %0, i64 %1, i32 %2) local_unnamed_addr #0 align 2 {
  %4 = and i64 %1, -8
  %5 = inttoptr i64 %4 to ptr
  %6 = load ptr, ptr %5, align 8
  %7 = getelementptr inbounds nuw i8, ptr %6, i64 32
  %8 = load ptr, ptr %7, align 8
  %9 = tail call noundef ptr %8(ptr noundef nonnull align 8 dereferenceable(168) %5) #17
  %10 = getelementptr inbounds nuw i8, ptr %9, i64 28
  %11 = load i32, ptr %10, align 4
  %12 = and i32 %11, 127
  %13 = icmp eq i32 %12, 33
  %14 = and i64 %1, 7
  %15 = icmp eq i64 %14, 2
  %or.cond = and i1 %15, %13
  br i1 %or.cond, label %.loopexit, label %16

16:                                               ; preds = %3
  %17 = getelementptr inbounds nuw i8, ptr %0, i64 8
  %18 = load ptr, ptr %17, align 8
  %19 = load ptr, ptr %18, align 8
  %20 = getelementptr inbounds nuw i8, ptr %19, i64 24
  %21 = load ptr, ptr %20, align 8
  %22 = tail call noundef ptr %21(ptr noundef nonnull align 8 dereferenceable(33) %18, i64 %1, i32 %2) #17
  %.not = icmp eq ptr %22, null
  br i1 %.not, label %.loopexit, label %23

23:                                               ; preds = %16
  %24 = load ptr, ptr %22, align 8
  %25 = tail call noundef i64 @_ZNK4llvm15SmallVectorBaseIjE4sizeEv(ptr noundef nonnull align 8 dereferenceable(16) %22) #17
  %26 = getelementptr inbounds %"struct.clang::ThunkInfo", ptr %24, i64 %25
  %.not1422 = icmp eq i64 %25, 0
  br i1 %.not1422, label %.loopexit, label %.lr.ph

.lr.ph:                                           ; preds = %23, %.lr.ph
  %.023 = phi ptr [ %28, %.lr.ph ], [ %24, %23 ]
  %27 = tail call noundef ptr @_ZN5clang7CodeGen14CodeGenVTables14maybeEmitThunkENS_10GlobalDeclERKNS_9ThunkInfoEb(ptr noundef nonnull align 8 dereferenceable(80) %0, i64 %1, i32 %2, ptr noundef nonnull align 8 dereferenceable(56) %.023, i1 noundef zeroext false)
  %28 = getelementptr inbounds nuw i8, ptr %.023, i64 56
  %.not14 = icmp eq ptr %28, %26
  br i1 %.not14, label %.loopexit, label %.lr.ph

.loopexit:                                        ; preds = %.lr.ph, %23, %3, %16
  ret void
}